target datalayout = "e-m:e-p270:32:32-p271:32:32-p272:64:64-i64:64-i128:128-f80:128-n8:16:32:64-S128"
target triple = "x86_64-pc-linux-gnu"

%struct.jpeg_compress_struct = type { ptr, ptr, ptr, ptr, i32, i32, ptr, i32, i32, i32, i32, double, i32, i32, i32, ptr, [4 x ptr], [4 x ptr], [4 x ptr], [16 x i8], [16 x i8], [16 x i8], i32, ptr, i32, i32, i32, i32, i32, i32, i32, i32, i32, i8, i8, i8, i16, i16, i32, i32, i32, i32, i32, i32, i32, [4 x ptr], i32, i32, i32, [10 x i32], i32, i32, i32, i32, ptr, ptr, ptr, ptr, ptr, ptr, ptr, ptr, ptr, ptr, i32 }
%struct.jpeg_destination_mgr = type { ptr, i64, ptr, ptr, ptr }
%struct.jpeg_error_mgr = type { ptr, ptr, ptr, ptr, ptr, i32, %union.anon, i32, i64, ptr, i32, ptr, i32, i32 }
%union.anon = type { [8 x i32], [48 x i8] }
%struct.my_destination_mgr = type { %struct.jpeg_destination_mgr, ptr, ptr }

; Function Attrs: nounwind uwtable
define internal i32 @empty_output_buffer(ptr noundef %0) #0 {
  %2 = alloca ptr, align 8
  %3 = alloca ptr, align 8
  store ptr %0, ptr %2, align 8, !tbaa !3
  call void @llvm.lifetime.start.p0(i64 8, ptr %3) #6
  %4 = load ptr, ptr %2, align 8, !tbaa !3
  %5 = getelementptr inbounds nuw %struct.jpeg_compress_struct, ptr %4, i32 0, i32 6
  %6 = load ptr, ptr %5, align 8, !tbaa !10
  store ptr %6, ptr %3, align 8, !tbaa !40
  %7 = load ptr, ptr %3, align 8, !tbaa !40
  %8 = getelementptr inbounds nuw %struct.my_destination_mgr, ptr %7, i32 0, i32 2
  %9 = load ptr, ptr %8, align 8, !tbaa !46
  %10 = load ptr, ptr %3, align 8, !tbaa !40
  %11 = getelementptr inbounds nuw %struct.my_destination_mgr, ptr %10, i32 0, i32 1
  %12 = load ptr, ptr %11, align 8, !tbaa !45
  %13 = call i64 @fwrite(ptr noundef %9, i64 noundef 1, i64 noundef 4096, ptr noundef %12)
  %14 = icmp ne i64 %13, 4096
  br i1 %14, label %15, label %26

15:                                               ; preds = %1
  %16 = load ptr, ptr %2, align 8, !tbaa !3
  %17 = getelementptr inbounds nuw %struct.jpeg_compress_struct, ptr %16, i32 0, i32 0
  %18 = load ptr, ptr %17, align 8, !tbaa !35
  %19 = getelementptr inbounds nuw %struct.jpeg_error_mgr, ptr %18, i32 0, i32 5
  store i32 37, ptr %19, align 8, !tbaa !36
  %20 = load ptr, ptr %2, align 8, !tbaa !3
  %21 = getelementptr inbounds nuw %struct.jpeg_compress_struct, ptr %20, i32 0, i32 0
  %22 = load ptr, ptr %21, align 8, !tbaa !35
  %23 = getelementptr inbounds nuw %struct.jpeg_error_mgr, ptr %22, i32 0, i32 0
  %24 = load ptr, ptr %23, align 8, !tbaa !39
  %25 = load ptr, ptr %2, align 8, !tbaa !3
  call void %24(ptr noundef %25)
  br label %26

26:                                               ; preds = %15, %1
  %27 = load ptr, ptr %3, align 8, !tbaa !40
  %28 = getelementptr inbounds nuw %struct.my_destination_mgr, ptr %27, i32 0, i32 2
  %29 = load ptr, ptr %28, align 8, !tbaa !46
  %30 = load ptr, ptr %3, align 8, !tbaa !40
  %31 = getelementptr inbounds nuw %struct.my_destination_mgr, ptr %30, i32 0, i32 0
  %32 = getelementptr inbounds nuw %struct.jpeg_destination_mgr, ptr %31, i32 0, i32 0
  store ptr %29, ptr %32, align 8, !tbaa !47
  %33 = load ptr, ptr %3, align 8, !tbaa !40
  %34 = getelementptr inbounds nuw %struct.my_destination_mgr, ptr %33, i32 0, i32 0
  %35 = getelementptr inbounds nuw %struct.jpeg_destination_mgr, ptr %34, i32 0, i32 1
  store i64 4096, ptr %35, align 8, !tbaa !48
  call void @llvm.lifetime.end.p0(i64 8, ptr %3) #6
  ret i32 1
}