; Function Attrs: nounwind uwtable
define internal noundef i32 @empty_output_buffer(ptr noundef %0) #0 {
  %2 = getelementptr inbounds nuw i8, ptr %0, i64 40
  %3 = load ptr, ptr %2, align 8, !tbaa !3
  %4 = getelementptr inbounds nuw i8, ptr %3, i64 48
  %5 = load ptr, ptr %4, align 8, !tbaa !42
  %6 = getelementptr inbounds nuw i8, ptr %3, i64 40
  %7 = load ptr, ptr %6, align 8, !tbaa !41
  %8 = tail call i64 @fwrite(ptr noundef %5, i64 noundef 1, i64 noundef 4096, ptr noundef %7)
  %.not = icmp eq i64 %8, 4096
  br i1 %.not, label %13, label %9

9:                                                ; preds = %1
  %10 = load ptr, ptr %0, align 8, !tbaa !31
  %11 = getelementptr inbounds nuw i8, ptr %10, i64 40
  store i32 37, ptr %11, align 8, !tbaa !32
  %12 = load ptr, ptr %10, align 8, !tbaa !35
  tail call void %12(ptr noundef nonnull %0) #8
  br label %13

13:                                               ; preds = %9, %1
  %14 = load ptr, ptr %4, align 8, !tbaa !42
  store ptr %14, ptr %3, align 8, !tbaa !43
  %15 = getelementptr inbounds nuw i8, ptr %3, i64 8
  store i64 4096, ptr %15, align 8, !tbaa !44
  ret i32 1
}